; Function Attrs: mustprogress uwtable
define hidden void @_ZN4cvc58internal6theory2uf15SymmetryBreaker8TemplateC2EPNS0_11NodeManagerE(ptr noundef nonnull align 8 dereferenceable(248) %0, ptr noundef %1) unnamed_addr #3 align 2 personality ptr @__gxx_personality_v0 {
  %3 = load atomic i8, ptr @_ZGVZN4cvc58internal4expr9NodeValue4nullEvE6s_null acquire, align 8
  %4 = icmp eq i8 %3, 0
  br i1 %4, label %5, label %_ZN4cvc58internal12NodeTemplateILb1EEC2Ev.exit, !prof !3

5:                                                ; preds = %2
  %6 = tail call i32 @__cxa_guard_acquire(ptr nonnull @_ZGVZN4cvc58internal4expr9NodeValue4nullEvE6s_null) #27
  %.not.i.i = icmp eq i32 %6, 0
  br i1 %.not.i.i, label %_ZN4cvc58internal12NodeTemplateILb1EEC2Ev.exit, label %7

7:                                                ; preds = %5
  %8 = invoke noalias noundef nonnull dereferenceable(24) ptr @_Znwm(i64 noundef 24) #28
          to label %9 unwind label %11

9:                                                ; preds = %7
  store i64 1152920405095219200, ptr %8, align 8
  %10 = getelementptr inbounds nuw i8, ptr %8, i64 8
  tail call void @llvm.memset.p0.i64(ptr noundef nonnull align 8 dereferenceable(16) %10, i8 0, i64 16, i1 false)
  store ptr %8, ptr @_ZZN4cvc58internal4expr9NodeValue4nullEvE6s_null, align 8, !tbaa !4
  tail call void @__cxa_guard_release(ptr nonnull @_ZGVZN4cvc58internal4expr9NodeValue4nullEvE6s_null) #27
  br label %_ZN4cvc58internal12NodeTemplateILb1EEC2Ev.exit

common.resume:                                    ; preds = %29, %11
  %common.resume.op = phi { ptr, i32 } [ %12, %11 ], [ %30, %29 ]
  resume { ptr, i32 } %common.resume.op

11:                                               ; preds = %7
  %12 = landingpad { ptr, i32 }
          cleanup
  tail call void @__cxa_guard_abort(ptr nonnull @_ZGVZN4cvc58internal4expr9NodeValue4nullEvE6s_null) #27
  br label %common.resume

_ZN4cvc58internal12NodeTemplateILb1EEC2Ev.exit:   ; preds = %2, %5, %9
  %13 = load ptr, ptr @_ZZN4cvc58internal4expr9NodeValue4nullEvE6s_null, align 8, !tbaa !4
  store ptr %13, ptr %0, align 8, !tbaa !9
  %14 = getelementptr inbounds nuw i8, ptr %0, i64 8
  invoke void @_ZN4cvc58internal11NodeBuilderC1EPNS0_11NodeManagerE(ptr noundef nonnull align 8 dereferenceable(124) %14, ptr noundef %1)
          to label %15 unwind label %29

15:                                               ; preds = %_ZN4cvc58internal12NodeTemplateILb1EEC2Ev.exit
  %16 = getelementptr inbounds nuw i8, ptr %0, i64 136
  %17 = getelementptr inbounds nuw i8, ptr %0, i64 168
  store i64 0, ptr %17, align 8
  %18 = getelementptr inbounds nuw i8, ptr %0, i64 184
  store ptr %18, ptr %16, align 8, !tbaa !11
  %19 = getelementptr inbounds nuw i8, ptr %0, i64 144
  store i64 1, ptr %19, align 8, !tbaa !19
  %20 = getelementptr inbounds nuw i8, ptr %0, i64 152
  %21 = getelementptr inbounds nuw i8, ptr %0, i64 168
  tail call void @llvm.memset.p0.i64(ptr noundef nonnull align 8 dereferenceable(16) %20, i8 0, i64 16, i1 false)
  store float 1.000000e+00, ptr %21, align 8, !tbaa !20
  %22 = getelementptr inbounds nuw i8, ptr %0, i64 176
  %23 = getelementptr inbounds nuw i8, ptr %0, i64 192
  %24 = getelementptr inbounds nuw i8, ptr %0, i64 240
  tail call void @llvm.memset.p0.i64(ptr noundef nonnull align 8 dereferenceable(56) %22, i8 0, i64 56, i1 false)
  store ptr %24, ptr %23, align 8, !tbaa !21
  %25 = getelementptr inbounds nuw i8, ptr %0, i64 200
  store i64 1, ptr %25, align 8, !tbaa !23
  %26 = getelementptr inbounds nuw i8, ptr %0, i64 208
  %27 = getelementptr inbounds nuw i8, ptr %0, i64 224
  tail call void @llvm.memset.p0.i64(ptr noundef nonnull align 8 dereferenceable(16) %26, i8 0, i64 16, i1 false)
  store float 1.000000e+00, ptr %27, align 8, !tbaa !20
  %28 = getelementptr inbounds nuw i8, ptr %0, i64 232
  tail call void @llvm.memset.p0.i64(ptr noundef nonnull align 8 dereferenceable(16) %28, i8 0, i64 16, i1 false)
  ret void

29:                                               ; preds = %_ZN4cvc58internal12NodeTemplateILb1EEC2Ev.exit
  %30 = landingpad { ptr, i32 }
          cleanup
  tail call void @_ZN4cvc58internal12NodeTemplateILb1EED2Ev(ptr noundef nonnull align 8 dereferenceable(8) %0) #27
  br label %common.resume
}